target datalayout = "e-m:e-p270:32:32-p271:32:32-p272:64:64-i64:64-i128:128-f80:128-n8:16:32:64-S128"
target triple = "x86_64-pc-linux-gnu"

@.str = private unnamed_addr constant [12 x i8] c"SCL mapping\00", align 1
@.str.1 = private unnamed_addr constant [9 x i8] c"read_lib\00", align 1
@.str.2 = private unnamed_addr constant [10 x i8] c"write_lib\00", align 1
@.str.3 = private unnamed_addr constant [10 x i8] c"print_lib\00", align 1
@.str.4 = private unnamed_addr constant [10 x i8] c"leak2area\00", align 1
@.str.5 = private unnamed_addr constant [9 x i8] c"read_scl\00", align 1
@.str.6 = private unnamed_addr constant [10 x i8] c"write_scl\00", align 1
@.str.7 = private unnamed_addr constant [12 x i8] c"dump_genlib\00", align 1
@.str.8 = private unnamed_addr constant [9 x i8] c"print_gs\00", align 1
@.str.9 = private unnamed_addr constant [6 x i8] c"stime\00", align 1
@.str.10 = private unnamed_addr constant [5 x i8] c"topo\00", align 1
@.str.11 = private unnamed_addr constant [9 x i8] c"unbuffer\00", align 1
@.str.12 = private unnamed_addr constant [7 x i8] c"buffer\00", align 1
@.str.13 = private unnamed_addr constant [8 x i8] c"minsize\00", align 1
@.str.14 = private unnamed_addr constant [8 x i8] c"maxsize\00", align 1
@.str.15 = private unnamed_addr constant [7 x i8] c"upsize\00", align 1
@.str.16 = private unnamed_addr constant [7 x i8] c"dnsize\00", align 1
@.str.17 = private unnamed_addr constant [10 x i8] c"print_buf\00", align 1
@.str.18 = private unnamed_addr constant [12 x i8] c"read_constr\00", align 1
@.str.19 = private unnamed_addr constant [13 x i8] c"write_constr\00", align 1
@.str.20 = private unnamed_addr constant [13 x i8] c"print_constr\00", align 1
@.str.21 = private unnamed_addr constant [13 x i8] c"reset_constr\00", align 1

; Function Attrs: nounwind uwtable
define void @Scl_Init(ptr noundef %0) #0 {
  %2 = alloca ptr, align 8
  store ptr %0, ptr %2, align 8, !tbaa !3
  %3 = load ptr, ptr %2, align 8, !tbaa !3
  call void @Cmd_CommandAdd(ptr noundef %3, ptr noundef @.str, ptr noundef @.str.1, ptr noundef @Scl_CommandReadLib, i32 noundef 0)
  %4 = load ptr, ptr %2, align 8, !tbaa !3
  call void @Cmd_CommandAdd(ptr noundef %4, ptr noundef @.str, ptr noundef @.str.2, ptr noundef @Scl_CommandWriteLib, i32 noundef 0)
  %5 = load ptr, ptr %2, align 8, !tbaa !3
  call void @Cmd_CommandAdd(ptr noundef %5, ptr noundef @.str, ptr noundef @.str.3, ptr noundef @Scl_CommandPrintLib, i32 noundef 0)
  %6 = load ptr, ptr %2, align 8, !tbaa !3
  call void @Cmd_CommandAdd(ptr noundef %6, ptr noundef @.str, ptr noundef @.str.4, ptr noundef @Scl_CommandLeak2Area, i32 noundef 0)
  %7 = load ptr, ptr %2, align 8, !tbaa !3
  call void @Cmd_CommandAdd(ptr noundef %7, ptr noundef @.str, ptr noundef @.str.5, ptr noundef @Scl_CommandReadScl, i32 noundef 0)
  %8 = load ptr, ptr %2, align 8, !tbaa !3
  call void @Cmd_CommandAdd(ptr noundef %8, ptr noundef @.str, ptr noundef @.str.6, ptr noundef @Scl_CommandWriteScl, i32 noundef 0)
  %9 = load ptr, ptr %2, align 8, !tbaa !3
  call void @Cmd_CommandAdd(ptr noundef %9, ptr noundef @.str, ptr noundef @.str.7, ptr noundef @Scl_CommandDumpGen, i32 noundef 0)
  %10 = load ptr, ptr %2, align 8, !tbaa !3
  call void @Cmd_CommandAdd(ptr noundef %10, ptr noundef @.str, ptr noundef @.str.8, ptr noundef @Scl_CommandPrintGS, i32 noundef 0)
  %11 = load ptr, ptr %2, align 8, !tbaa !3
  call void @Cmd_CommandAdd(ptr noundef %11, ptr noundef @.str, ptr noundef @.str.9, ptr noundef @Scl_CommandStime, i32 noundef 0)
  %12 = load ptr, ptr %2, align 8, !tbaa !3
  call void @Cmd_CommandAdd(ptr noundef %12, ptr noundef @.str, ptr noundef @.str.10, ptr noundef @Scl_CommandTopo, i32 noundef 1)
  %13 = load ptr, ptr %2, align 8, !tbaa !3
  call void @Cmd_CommandAdd(ptr noundef %13, ptr noundef @.str, ptr noundef @.str.11, ptr noundef @Scl_CommandUnBuffer, i32 noundef 1)
  %14 = load ptr, ptr %2, align 8, !tbaa !3
  call void @Cmd_CommandAdd(ptr noundef %14, ptr noundef @.str, ptr noundef @.str.12, ptr noundef @Scl_CommandBuffer, i32 noundef 1)
  %15 = load ptr, ptr %2, align 8, !tbaa !3
  call void @Cmd_CommandAdd(ptr noundef %15, ptr noundef @.str, ptr noundef @.str.13, ptr noundef @Scl_CommandMinsize, i32 noundef 1)
  %16 = load ptr, ptr %2, align 8, !tbaa !3
  call void @Cmd_CommandAdd(ptr noundef %16, ptr noundef @.str, ptr noundef @.str.14, ptr noundef @Scl_CommandMaxsize, i32 noundef 1)
  %17 = load ptr, ptr %2, align 8, !tbaa !3
  call void @Cmd_CommandAdd(ptr noundef %17, ptr noundef @.str, ptr noundef @.str.15, ptr noundef @Scl_CommandUpsize, i32 noundef 1)
  %18 = load ptr, ptr %2, align 8, !tbaa !3
  call void @Cmd_CommandAdd(ptr noundef %18, ptr noundef @.str, ptr noundef @.str.16, ptr noundef @Scl_CommandDnsize, i32 noundef 1)
  %19 = load ptr, ptr %2, align 8, !tbaa !3
  call void @Cmd_CommandAdd(ptr noundef %19, ptr noundef @.str, ptr noundef @.str.17, ptr noundef @Scl_CommandPrintBuf, i32 noundef 0)
  %20 = load ptr, ptr %2, align 8, !tbaa !3
  call void @Cmd_CommandAdd(ptr noundef %20, ptr noundef @.str, ptr noundef @.str.18, ptr noundef @Scl_CommandReadConstr, i32 noundef 0)
  %21 = load ptr, ptr %2, align 8, !tbaa !3
  call void @Cmd_CommandAdd(ptr noundef %21, ptr noundef @.str, ptr noundef @.str.19, ptr noundef @Scl_CommandWriteConstr, i32 noundef 0)
  %22 = load ptr, ptr %2, align 8, !tbaa !3
  call void @Cmd_CommandAdd(ptr noundef %22, ptr noundef @.str, ptr noundef @.str.20, ptr noundef @Scl_CommandPrintConstr, i32 noundef 0)
  %23 = load ptr, ptr %2, align 8, !tbaa !3
  call void @Cmd_CommandAdd(ptr noundef %23, ptr noundef @.str, ptr noundef @.str.21, ptr noundef @Scl_CommandResetConstr, i32 noundef 0)
  ret void
}