; Function Attrs: nounwind uwtable
define void @Scl_Init(ptr noundef %0) local_unnamed_addr #0 {
  tail call void @Cmd_CommandAdd(ptr noundef %0, ptr noundef nonnull @.str, ptr noundef nonnull @.str.1, ptr noundef nonnull @Scl_CommandReadLib, i32 noundef 0) #12
  tail call void @Cmd_CommandAdd(ptr noundef %0, ptr noundef nonnull @.str, ptr noundef nonnull @.str.2, ptr noundef nonnull @Scl_CommandWriteLib, i32 noundef 0) #12
  tail call void @Cmd_CommandAdd(ptr noundef %0, ptr noundef nonnull @.str, ptr noundef nonnull @.str.3, ptr noundef nonnull @Scl_CommandPrintLib, i32 noundef 0) #12
  tail call void @Cmd_CommandAdd(ptr noundef %0, ptr noundef nonnull @.str, ptr noundef nonnull @.str.4, ptr noundef nonnull @Scl_CommandLeak2Area, i32 noundef 0) #12
  tail call void @Cmd_CommandAdd(ptr noundef %0, ptr noundef nonnull @.str, ptr noundef nonnull @.str.5, ptr noundef nonnull @Scl_CommandReadScl, i32 noundef 0) #12
  tail call void @Cmd_CommandAdd(ptr noundef %0, ptr noundef nonnull @.str, ptr noundef nonnull @.str.6, ptr noundef nonnull @Scl_CommandWriteScl, i32 noundef 0) #12
  tail call void @Cmd_CommandAdd(ptr noundef %0, ptr noundef nonnull @.str, ptr noundef nonnull @.str.7, ptr noundef nonnull @Scl_CommandDumpGen, i32 noundef 0) #12
  tail call void @Cmd_CommandAdd(ptr noundef %0, ptr noundef nonnull @.str, ptr noundef nonnull @.str.8, ptr noundef nonnull @Scl_CommandPrintGS, i32 noundef 0) #12
  tail call void @Cmd_CommandAdd(ptr noundef %0, ptr noundef nonnull @.str, ptr noundef nonnull @.str.9, ptr noundef nonnull @Scl_CommandStime, i32 noundef 0) #12
  tail call void @Cmd_CommandAdd(ptr noundef %0, ptr noundef nonnull @.str, ptr noundef nonnull @.str.10, ptr noundef nonnull @Scl_CommandTopo, i32 noundef 1) #12
  tail call void @Cmd_CommandAdd(ptr noundef %0, ptr noundef nonnull @.str, ptr noundef nonnull @.str.11, ptr noundef nonnull @Scl_CommandUnBuffer, i32 noundef 1) #12
  tail call void @Cmd_CommandAdd(ptr noundef %0, ptr noundef nonnull @.str, ptr noundef nonnull @.str.12, ptr noundef nonnull @Scl_CommandBuffer, i32 noundef 1) #12
  tail call void @Cmd_CommandAdd(ptr noundef %0, ptr noundef nonnull @.str, ptr noundef nonnull @.str.13, ptr noundef nonnull @Scl_CommandMinsize, i32 noundef 1) #12
  tail call void @Cmd_CommandAdd(ptr noundef %0, ptr noundef nonnull @.str, ptr noundef nonnull @.str.14, ptr noundef nonnull @Scl_CommandMaxsize, i32 noundef 1) #12
  tail call void @Cmd_CommandAdd(ptr noundef %0, ptr noundef nonnull @.str, ptr noundef nonnull @.str.15, ptr noundef nonnull @Scl_CommandUpsize, i32 noundef 1) #12
  tail call void @Cmd_CommandAdd(ptr noundef %0, ptr noundef nonnull @.str, ptr noundef nonnull @.str.16, ptr noundef nonnull @Scl_CommandDnsize, i32 noundef 1) #12
  tail call void @Cmd_CommandAdd(ptr noundef %0, ptr noundef nonnull @.str, ptr noundef nonnull @.str.17, ptr noundef nonnull @Scl_CommandPrintBuf, i32 noundef 0) #12
  tail call void @Cmd_CommandAdd(ptr noundef %0, ptr noundef nonnull @.str, ptr noundef nonnull @.str.18, ptr noundef nonnull @Scl_CommandReadConstr, i32 noundef 0) #12
  tail call void @Cmd_CommandAdd(ptr noundef %0, ptr noundef nonnull @.str, ptr noundef nonnull @.str.19, ptr noundef nonnull @Scl_CommandWriteConstr, i32 noundef 0) #12
  tail call void @Cmd_CommandAdd(ptr noundef %0, ptr noundef nonnull @.str, ptr noundef nonnull @.str.20, ptr noundef nonnull @Scl_CommandPrintConstr, i32 noundef 0) #12
  tail call void @Cmd_CommandAdd(ptr noundef %0, ptr noundef nonnull @.str, ptr noundef nonnull @.str.21, ptr noundef nonnull @Scl_CommandResetConstr, i32 noundef 0) #12
  ret void
}